target datalayout = "e-m:e-p270:32:32-p271:32:32-p272:64:64-i64:64-i128:128-f80:128-n8:16:32:64-S128"
target triple = "x86_64-pc-linux-gnu"

%"class.cv::videostab::InpaintingPipeline" = type { %"class.cv::videostab::InpainterBase", %"class.std::vector" }
%"class.cv::videostab::InpainterBase" = type { ptr, i32, i32, ptr, ptr, ptr, ptr }
%"class.std::vector" = type { %"struct.std::_Vector_base" }
%"struct.std::_Vector_base" = type { %"struct.std::_Vector_base<cv::Ptr<cv::videostab::InpainterBase>, std::allocator<cv::Ptr<cv::videostab::InpainterBase>>>::_Vector_impl" }
%"struct.std::_Vector_base<cv::Ptr<cv::videostab::InpainterBase>, std::allocator<cv::Ptr<cv::videostab::InpainterBase>>>::_Vector_impl" = type { %"struct.std::_Vector_base<cv::Ptr<cv::videostab::InpainterBase>, std::allocator<cv::Ptr<cv::videostab::InpainterBase>>>::_Vector_impl_data" }
%"struct.std::_Vector_base<cv::Ptr<cv::videostab::InpainterBase>, std::allocator<cv::Ptr<cv::videostab::InpainterBase>>>::_Vector_impl_data" = type { ptr, ptr, ptr }
%"struct.cv::Ptr" = type { %"class.std::shared_ptr" }
%"class.std::shared_ptr" = type { %"class.std::__shared_ptr" }
%"class.std::__shared_ptr" = type { ptr, %"class.std::__shared_count" }
%"class.std::__shared_count" = type { ptr }

; Function Attrs: mustprogress nounwind uwtable
define linkonce_odr hidden noundef ptr @_ZNKSt12__shared_ptrIN2cv9videostab13InpainterBaseELN9__gnu_cxx12_Lock_policyE2EE3getEv(ptr noundef nonnull align 8 dereferenceable(16) %0) #6 comdat align 2 {
  %2 = alloca ptr, align 8
  store ptr %0, ptr %2, align 8, !tbaa !301
  %3 = load ptr, ptr %2, align 8
  %4 = getelementptr inbounds nuw %"class.std::__shared_ptr", ptr %3, i32 0, i32 0
  %5 = load ptr, ptr %4, align 8, !tbaa !321
  ret ptr %5
}

; Function Attrs: mustprogress nounwind uwtable
define linkonce_odr hidden void @_ZN2cv9videostab13InpainterBase19setStabilizedFramesERKSt6vectorINS_3MatESaIS3_EE(ptr noundef nonnull align 8 dereferenceable(48) %0, ptr noundef nonnull align 8 dereferenceable(24) %1) unnamed_addr #6 comdat align 2 {
  %3 = alloca ptr, align 8
  %4 = alloca ptr, align 8
  store ptr %0, ptr %3, align 8, !tbaa !23
  store ptr %1, ptr %4, align 8, !tbaa !29
  %5 = load ptr, ptr %3, align 8
  %6 = load ptr, ptr %4, align 8, !tbaa !29
  %7 = getelementptr inbounds nuw %"class.cv::videostab::InpainterBase", ptr %5, i32 0, i32 5
  store ptr %6, ptr %7, align 8, !tbaa !38
  ret void
}

; Function Attrs: mustprogress nounwind uwtable
define linkonce_odr hidden noundef ptr @_ZNK2cv3PtrINS_9videostab13InpainterBaseEEptEv(ptr noundef nonnull align 8 dereferenceable(16) %0) #6 comdat align 2 {
  %2 = alloca ptr, align 8
  store ptr %0, ptr %2, align 8, !tbaa !22
  %3 = load ptr, ptr %2, align 8
  %4 = call noundef ptr @_ZNKSt12__shared_ptrIN2cv9videostab13InpainterBaseELN9__gnu_cxx12_Lock_policyE2EE3getEv(ptr noundef nonnull align 8 dereferenceable(16) %3) #3
  ret ptr %4
}

; Function Attrs: mustprogress nounwind uwtable
define linkonce_odr hidden noundef nonnull align 8 dereferenceable(16) ptr @_ZNSt6vectorIN2cv3PtrINS0_9videostab13InpainterBaseEEESaIS4_EEixEm(ptr noundef nonnull align 8 dereferenceable(24) %0, i64 noundef %1) #6 comdat align 2 {
  %3 = alloca ptr, align 8
  %4 = alloca i64, align 8
  store ptr %0, ptr %3, align 8, !tbaa !16
  store i64 %1, ptr %4, align 8, !tbaa !10
  %5 = load ptr, ptr %3, align 8
  %6 = getelementptr inbounds nuw %"struct.std::_Vector_base", ptr %5, i32 0, i32 0
  %7 = getelementptr inbounds nuw %"struct.std::_Vector_base<cv::Ptr<cv::videostab::InpainterBase>, std::allocator<cv::Ptr<cv::videostab::InpainterBase>>>::_Vector_impl_data", ptr %6, i32 0, i32 0
  %8 = load ptr, ptr %7, align 8, !tbaa !21
  %9 = load i64, ptr %4, align 8, !tbaa !10
  %10 = getelementptr inbounds nuw %"struct.cv::Ptr", ptr %8, i64 %9
  ret ptr %10
}

; Function Attrs: mustprogress nounwind uwtable
define linkonce_odr hidden noundef i64 @_ZNKSt6vectorIN2cv3PtrINS0_9videostab13InpainterBaseEEESaIS4_EE4sizeEv(ptr noundef nonnull align 8 dereferenceable(24) %0) #6 comdat align 2 {
  %2 = alloca ptr, align 8
  store ptr %0, ptr %2, align 8, !tbaa !16
  %3 = load ptr, ptr %2, align 8
  %4 = getelementptr inbounds nuw %"struct.std::_Vector_base", ptr %3, i32 0, i32 0
  %5 = getelementptr inbounds nuw %"struct.std::_Vector_base<cv::Ptr<cv::videostab::InpainterBase>, std::allocator<cv::Ptr<cv::videostab::InpainterBase>>>::_Vector_impl_data", ptr %4, i32 0, i32 1
  %6 = load ptr, ptr %5, align 8, !tbaa !18
  %7 = getelementptr inbounds nuw %"struct.std::_Vector_base", ptr %3, i32 0, i32 0
  %8 = getelementptr inbounds nuw %"struct.std::_Vector_base<cv::Ptr<cv::videostab::InpainterBase>, std::allocator<cv::Ptr<cv::videostab::InpainterBase>>>::_Vector_impl_data", ptr %7, i32 0, i32 0
  %9 = load ptr, ptr %8, align 8, !tbaa !21
  %10 = ptrtoint ptr %6 to i64
  %11 = ptrtoint ptr %9 to i64
  %12 = sub i64 %10, %11
  %13 = sdiv exact i64 %12, 16
  ret i64 %13
}

; Function Attrs: mustprogress uwtable
define void @_ZN2cv9videostab18InpaintingPipeline19setStabilizedFramesERKSt6vectorINS_3MatESaIS3_EE(ptr noundef nonnull align 8 dereferenceable(72) %0, ptr noundef nonnull align 8 dereferenceable(24) %1) unnamed_addr #4 align 2 {
  %3 = alloca ptr, align 8
  %4 = alloca ptr, align 8
  %5 = alloca i64, align 8
  store ptr %0, ptr %3, align 8, !tbaa !3
  store ptr %1, ptr %4, align 8, !tbaa !29
  %6 = load ptr, ptr %3, align 8
  call void @llvm.lifetime.start.p0(i64 8, ptr %5) #3
  store i64 0, ptr %5, align 8, !tbaa !10
  br label %7

7:                                                ; preds = %22, %2
  %8 = load i64, ptr %5, align 8, !tbaa !10
  %9 = getelementptr inbounds nuw %"class.cv::videostab::InpaintingPipeline", ptr %6, i32 0, i32 1
  %10 = call noundef i64 @_ZNKSt6vectorIN2cv3PtrINS0_9videostab13InpainterBaseEEESaIS4_EE4sizeEv(ptr noundef nonnull align 8 dereferenceable(24) %9) #3
  %11 = icmp ult i64 %8, %10
  br i1 %11, label %13, label %12

12:                                               ; preds = %7
  call void @llvm.lifetime.end.p0(i64 8, ptr %5) #3
  br label %25

13:                                               ; preds = %7
  %14 = getelementptr inbounds nuw %"class.cv::videostab::InpaintingPipeline", ptr %6, i32 0, i32 1
  %15 = load i64, ptr %5, align 8, !tbaa !10
  %16 = call noundef nonnull align 8 dereferenceable(16) ptr @_ZNSt6vectorIN2cv3PtrINS0_9videostab13InpainterBaseEEESaIS4_EEixEm(ptr noundef nonnull align 8 dereferenceable(24) %14, i64 noundef %15) #3
  %17 = call noundef ptr @_ZNK2cv3PtrINS_9videostab13InpainterBaseEEptEv(ptr noundef nonnull align 8 dereferenceable(16) %16) #3
  %18 = load ptr, ptr %4, align 8, !tbaa !29
  %19 = load ptr, ptr %17, align 8, !tbaa !12
  %20 = getelementptr inbounds ptr, ptr %19, i64 11
  %21 = load ptr, ptr %20, align 8
  call void %21(ptr noundef nonnull align 8 dereferenceable(48) %17, ptr noundef nonnull align 8 dereferenceable(24) %18)
  br label %22

22:                                               ; preds = %13
  %23 = load i64, ptr %5, align 8, !tbaa !10
  %24 = add i64 %23, 1
  store i64 %24, ptr %5, align 8, !tbaa !10
  br label %7, !llvm.loop !37

25:                                               ; preds = %12
  %26 = load ptr, ptr %4, align 8, !tbaa !29
  call void @_ZN2cv9videostab13InpainterBase19setStabilizedFramesERKSt6vectorINS_3MatESaIS3_EE(ptr noundef nonnull align 8 dereferenceable(48) %6, ptr noundef nonnull align 8 dereferenceable(24) %26)
  ret void
}