; Function Attrs: mustprogress uwtable
define void @_ZN2cv9videostab18InpaintingPipeline19setStabilizedFramesERKSt6vectorINS_3MatESaIS3_EE(ptr noundef nonnull align 8 captures(none) dereferenceable(72) %0, ptr noundef nonnull align 8 dereferenceable(24) %1) unnamed_addr #3 align 2 {
  %3 = getelementptr inbounds nuw i8, ptr %0, i64 48
  %4 = getelementptr inbounds nuw i8, ptr %0, i64 56
  %5 = load ptr, ptr %4, align 8, !tbaa !3
  %6 = load ptr, ptr %3, align 8, !tbaa !9
  %.not = icmp eq ptr %5, %6
  br i1 %.not, label %._crit_edge, label %.lr.ph

._crit_edge:                                      ; preds = %.lr.ph, %2
  %7 = getelementptr inbounds nuw i8, ptr %0, i64 32
  store ptr %1, ptr %7, align 8, !tbaa !30
  ret void

.lr.ph:                                           ; preds = %2, %.lr.ph
  %8 = phi ptr [ %16, %.lr.ph ], [ %6, %2 ]
  %.05 = phi i64 [ %14, %.lr.ph ], [ 0, %2 ]
  %9 = getelementptr inbounds nuw %"struct.cv::Ptr", ptr %8, i64 %.05
  %10 = load ptr, ptr %9, align 8, !tbaa !15
  %11 = load ptr, ptr %10, align 8, !tbaa !20
  %12 = getelementptr inbounds nuw i8, ptr %11, i64 88
  %13 = load ptr, ptr %12, align 8
  tail call void %13(ptr noundef nonnull align 8 dereferenceable(48) %10, ptr noundef nonnull align 8 dereferenceable(24) %1)
  %14 = add nuw i64 %.05, 1
  %15 = load ptr, ptr %4, align 8, !tbaa !3
  %16 = load ptr, ptr %3, align 8, !tbaa !9
  %17 = ptrtoint ptr %15 to i64
  %18 = ptrtoint ptr %16 to i64
  %19 = sub i64 %17, %18
  %20 = ashr exact i64 %19, 4
  %21 = icmp ult i64 %14, %20
  br i1 %21, label %.lr.ph, label %._crit_edge, !llvm.loop !31
}